; Function Attrs: mustprogress uwtable
define internal noundef ptr @"_ZZN4pkpy15__init_builtinsEPNS_2VMEEN4$_298__invokeES1_NS_8ArgsViewE"(ptr noundef %0, ptr nocapture readonly %1, ptr nocapture readnone %2) #4 align 2 personality ptr @__gxx_personality_v0 {
  %4 = alloca %"struct.pkpy::Str", align 8
  call void @llvm.lifetime.start.p0(i64 32, ptr nonnull %4)
  %5 = load ptr, ptr %1, align 8
  %6 = ptrtoint ptr %5 to i64
  %7 = and i64 %6, 3
  %8 = icmp eq i64 %7, 2
  br i1 %8, label %12, label %_ZN4pkpy7is_typeEPNS_8PyObjectENS_4TypeE.exit.i.i.i.i

_ZN4pkpy7is_typeEPNS_8PyObjectENS_4TypeE.exit.i.i.i.i: ; preds = %3
  %9 = getelementptr inbounds i8, ptr %5, i64 10
  %10 = load i16, ptr %9, align 2
  %11 = icmp eq i16 %10, 5
  br i1 %11, label %_ZN4pkpy7py_castIRNS_3StrEEET_PNS_2VMEPNS_8PyObjectE.exit.i, label %12

12:                                               ; preds = %_ZN4pkpy7is_typeEPNS_8PyObjectENS_4TypeE.exit.i.i.i.i, %3
  %13 = getelementptr inbounds i8, ptr %5, i64 10
  %14 = select i1 %8, ptr @_ZN4pkpy2VM6tp_intE, ptr %13
  %.sroa.0.0.copyload.i.i.i.i.i = load i16, ptr %14, align 2
  tail call void @_ZN4pkpy2VM9TypeErrorENS_4TypeES1_(ptr noundef nonnull align 8 dereferenceable(264913) %0, i16 5, i16 %.sroa.0.0.copyload.i.i.i.i.i)
  br label %_ZN4pkpy7py_castIRNS_3StrEEET_PNS_2VMEPNS_8PyObjectE.exit.i

_ZN4pkpy7py_castIRNS_3StrEEET_PNS_2VMEPNS_8PyObjectE.exit.i: ; preds = %12, %_ZN4pkpy7is_typeEPNS_8PyObjectENS_4TypeE.exit.i.i.i.i
  %15 = getelementptr inbounds i8, ptr %5, i64 24
  call void @_ZN4pkpy3StrC1ERKS0_(ptr noundef nonnull align 8 dereferenceable(32) %4, ptr noundef nonnull align 8 dereferenceable(32) %15)
  %16 = invoke noundef ptr @_ZN4pkpy2VM9py_importENS_3StrEb(ptr noundef nonnull align 8 dereferenceable(264913) %0, ptr noundef nonnull %4, i1 noundef zeroext true)
          to label %"_ZZN4pkpy15__init_builtinsEPNS_2VMEENK4$_29clES1_NS_8ArgsViewE.exit" unwind label %17

17:                                               ; preds = %_ZN4pkpy7py_castIRNS_3StrEEET_PNS_2VMEPNS_8PyObjectE.exit.i
  %18 = landingpad { ptr, i32 }
          cleanup
  call void @_ZN4pkpy3StrD1Ev(ptr noundef nonnull align 8 dereferenceable(32) %4) #35
  resume { ptr, i32 } %18

"_ZZN4pkpy15__init_builtinsEPNS_2VMEENK4$_29clES1_NS_8ArgsViewE.exit": ; preds = %_ZN4pkpy7py_castIRNS_3StrEEET_PNS_2VMEPNS_8PyObjectE.exit.i
  call void @_ZN4pkpy3StrD1Ev(ptr noundef nonnull align 8 dereferenceable(32) %4) #35
  call void @llvm.lifetime.end.p0(i64 32, ptr nonnull %4)
  ret ptr %16
}